; Function Attrs: nounwind sspstrong uwtable
define internal i64 @etc_getpwent(i64 %0) #0 {
  %2 = tail call ptr @getpwent() #13
  %.not = icmp eq ptr %2, null
  br i1 %.not, label %35, label %3

3:                                                ; preds = %1
  %4 = load i64, ptr @sPasswd, align 8, !tbaa !6
  %5 = load ptr, ptr %2, align 8, !tbaa !10
  %6 = icmp eq ptr %5, null
  %spec.store.select.i.i = select i1 %6, ptr @.str.216, ptr %5
  %7 = tail call i64 @rb_locale_str_new_cstr(ptr noundef nonnull %spec.store.select.i.i) #13
  %8 = getelementptr inbounds nuw i8, ptr %2, i64 8
  %9 = load ptr, ptr %8, align 8, !tbaa !15
  %10 = icmp eq ptr %9, null
  %spec.store.select.i8.i = select i1 %10, ptr @.str.216, ptr %9
  %11 = tail call i64 @rb_str_new_cstr(ptr noundef nonnull %spec.store.select.i8.i) #13
  %12 = getelementptr inbounds nuw i8, ptr %2, i64 16
  %13 = load i32, ptr %12, align 8, !tbaa !16
  %14 = zext i32 %13 to i64
  %15 = shl nuw nsw i64 %14, 1
  %16 = or disjoint i64 %15, 1
  %17 = getelementptr inbounds nuw i8, ptr %2, i64 20
  %18 = load i32, ptr %17, align 4, !tbaa !17
  %19 = zext i32 %18 to i64
  %20 = shl nuw nsw i64 %19, 1
  %21 = or disjoint i64 %20, 1
  %22 = getelementptr inbounds nuw i8, ptr %2, i64 24
  %23 = load ptr, ptr %22, align 8, !tbaa !18
  %24 = icmp eq ptr %23, null
  %spec.store.select.i9.i = select i1 %24, ptr @.str.216, ptr %23
  %25 = tail call i64 @rb_locale_str_new_cstr(ptr noundef nonnull %spec.store.select.i9.i) #13
  %26 = getelementptr inbounds nuw i8, ptr %2, i64 32
  %27 = load ptr, ptr %26, align 8, !tbaa !19
  %28 = icmp eq ptr %27, null
  %spec.store.select.i10.i = select i1 %28, ptr @.str.216, ptr %27
  %29 = tail call i64 @rb_filesystem_str_new_cstr(ptr noundef nonnull %spec.store.select.i10.i) #13
  %30 = getelementptr inbounds nuw i8, ptr %2, i64 40
  %31 = load ptr, ptr %30, align 8, !tbaa !20
  %32 = icmp eq ptr %31, null
  %spec.store.select.i11.i = select i1 %32, ptr @.str.216, ptr %31
  %33 = tail call i64 @rb_filesystem_str_new_cstr(ptr noundef nonnull %spec.store.select.i11.i) #13
  %34 = tail call i64 (i64, ...) @rb_struct_new(i64 noundef %4, i64 noundef %7, i64 noundef %11, i64 noundef %16, i64 noundef %21, i64 noundef %25, i64 noundef %29, i64 noundef %33, i32 noundef 0) #13
  br label %35

35:                                               ; preds = %1, %3
  %.0 = phi i64 [ %34, %3 ], [ 4, %1 ]
  ret i64 %.0
}